target datalayout = "e-m:e-p270:32:32-p271:32:32-p272:64:64-i64:64-i128:128-f80:128-n8:16:32:64-S128"
target triple = "x86_64-unknown-linux-gnu"

%"class.std::__shared_count" = type { ptr }
%"class.std::shared_ptr" = type { %"class.std::__shared_ptr" }
%"class.std::__shared_ptr" = type { ptr, %"class.std::__shared_count" }
%"class.facebook::velox::VectorFuzzer" = type { %"struct.facebook::velox::VectorFuzzer::Options", ptr, %"class.std::mersenne_twister_engine" }
%"struct.facebook::velox::VectorFuzzer::Options" = type <{ i64, double, i8, i8, [6 x i8], i64, %"class.std::vector.6", i8, [7 x i8], i64, i8, [7 x i8], i64, %"class.std::optional", i8, i8, i8, [5 x i8] }>
%"class.std::vector.6" = type { %"struct.std::_Vector_base.7" }
%"struct.std::_Vector_base.7" = type { %"struct.std::_Vector_base<facebook::velox::UTF8CharList, std::allocator<facebook::velox::UTF8CharList>>::_Vector_impl" }
%"struct.std::_Vector_base<facebook::velox::UTF8CharList, std::allocator<facebook::velox::UTF8CharList>>::_Vector_impl" = type { %"struct.std::_Vector_base<facebook::velox::UTF8CharList, std::allocator<facebook::velox::UTF8CharList>>::_Vector_impl_data" }
%"struct.std::_Vector_base<facebook::velox::UTF8CharList, std::allocator<facebook::velox::UTF8CharList>>::_Vector_impl_data" = type { ptr, ptr, ptr }
%"class.std::optional" = type { %"struct.std::_Optional_base" }
%"struct.std::_Optional_base" = type { %"struct.std::_Optional_payload" }
%"struct.std::_Optional_payload" = type { %"struct.std::_Optional_payload_base.base", [3 x i8] }
%"struct.std::_Optional_payload_base.base" = type <{ %"union.std::_Optional_payload_base<int>::_Storage", i8 }>
%"union.std::_Optional_payload_base<int>::_Storage" = type { i32 }
%"class.std::mersenne_twister_engine" = type { [624 x i64], i64 }

; Function Attrs: mustprogress uwtable
define void @_ZN8facebook5velox12VectorFuzzer4fuzzERKNS0_13GeneratorSpecE(ptr noalias sret(%"class.std::shared_ptr") align 8 %agg.result, ptr noundef nonnull align 8 dereferenceable(5112) %this, ptr noundef nonnull align 8 dereferenceable(32) %generatorSpec) #5 align 2 {
entry:
  %result.ptr = alloca ptr, align 8
  %this.addr = alloca ptr, align 8
  %generatorSpec.addr = alloca ptr, align 8
  store ptr %agg.result, ptr %result.ptr, align 8
  store ptr %this, ptr %this.addr, align 8
  store ptr %generatorSpec, ptr %generatorSpec.addr, align 8
  %this1 = load ptr, ptr %this.addr, align 8
  %0 = load ptr, ptr %generatorSpec.addr, align 8
  %rng_ = getelementptr inbounds %"class.facebook::velox::VectorFuzzer", ptr %this1, i32 0, i32 2
  %pool_ = getelementptr inbounds %"class.facebook::velox::VectorFuzzer", ptr %this1, i32 0, i32 1
  %1 = load ptr, ptr %pool_, align 8
  %opts_ = getelementptr inbounds %"class.facebook::velox::VectorFuzzer", ptr %this1, i32 0, i32 0
  %vectorSize = getelementptr inbounds %"struct.facebook::velox::VectorFuzzer::Options", ptr %opts_, i32 0, i32 0
  %2 = load i64, ptr %vectorSize, align 8
  call void @_ZNK8facebook5velox13GeneratorSpec12generateDataERSt23mersenne_twister_engineImLm32ELm624ELm397ELm31ELm2567483615ELm11ELm4294967295ELm7ELm2636928640ELm15ELm4022730752ELm18ELm1812433253EEPNS0_6memory10MemoryPoolEm(ptr sret(%"class.std::shared_ptr") align 8 %agg.result, ptr noundef nonnull align 8 dereferenceable(32) %0, ptr noundef nonnull align 8 dereferenceable(5000) %rng_, ptr noundef %1, i64 noundef %2)
  ret void
}