; Function Attrs: mustprogress uwtable
define void @_ZN8facebook5velox12VectorFuzzer4fuzzERKNS0_13GeneratorSpecE(ptr noalias sret(%"class.std::shared_ptr") align 8 %agg.result, ptr noundef nonnull align 8 dereferenceable(5112) %this, ptr noundef nonnull align 8 dereferenceable(32) %generatorSpec) local_unnamed_addr #4 align 2 {
entry:
  %rng_ = getelementptr inbounds i8, ptr %this, i64 112
  %pool_ = getelementptr inbounds i8, ptr %this, i64 104
  %0 = load ptr, ptr %pool_, align 8
  %1 = load i64, ptr %this, align 8
  tail call void @_ZNK8facebook5velox13GeneratorSpec12generateDataERSt23mersenne_twister_engineImLm32ELm624ELm397ELm31ELm2567483615ELm11ELm4294967295ELm7ELm2636928640ELm15ELm4022730752ELm18ELm1812433253EEPNS0_6memory10MemoryPoolEm(ptr sret(%"class.std::shared_ptr") align 8 %agg.result, ptr noundef nonnull align 8 dereferenceable(32) %generatorSpec, ptr noundef nonnull align 8 dereferenceable(5000) %rng_, ptr noundef %0, i64 noundef %1)
  ret void
}